target datalayout = "e-m:e-p270:32:32-p271:32:32-p272:64:64-i64:64-i128:128-f80:128-n8:16:32:64-S128"
target triple = "x86_64-pc-linux-gnu"

%struct.jv_parser = type { ptr, i32, i32, i32, i32, i32, i32, ptr, i32, i32, %struct.jv, i32, %struct.jv, %struct.jv, ptr, i32, i32, i32, i32, %struct.dtoa_context, i32, i8 }
%struct.jv = type { i8, i8, i16, i32, %union.anon }
%union.anon = type { ptr }
%struct.dtoa_context = type { [8 x ptr], ptr }

; Function Attrs: nounwind uwtable
define internal void @parser_init(ptr noundef %0, i32 noundef %1) #0 {
  %3 = alloca ptr, align 8
  %4 = alloca i32, align 4
  %5 = alloca %struct.jv, align 8
  %6 = alloca %struct.jv, align 8
  %7 = alloca %struct.jv, align 8
  %8 = alloca %struct.jv, align 8
  store ptr %0, ptr %3, align 8, !tbaa !8
  store i32 %1, ptr %4, align 4, !tbaa !4
  %9 = load i32, ptr %4, align 4, !tbaa !4
  %10 = load ptr, ptr %3, align 8, !tbaa !8
  %11 = getelementptr inbounds nuw %struct.jv_parser, ptr %10, i32 0, i32 6
  store i32 %9, ptr %11, align 4, !tbaa !11
  %12 = load ptr, ptr %3, align 8, !tbaa !8
  %13 = getelementptr inbounds nuw %struct.jv_parser, ptr %12, i32 0, i32 6
  %14 = load i32, ptr %13, align 4, !tbaa !11
  %15 = and i32 %14, 2
  %16 = icmp ne i32 %15, 0
  br i1 %16, label %17, label %25

17:                                               ; preds = %2
  %18 = load ptr, ptr %3, align 8, !tbaa !8
  %19 = getelementptr inbounds nuw %struct.jv_parser, ptr %18, i32 0, i32 10
  call void @llvm.lifetime.start.p0(i64 16, ptr %5) #6
  %20 = call { i64, ptr } @jv_array()
  %21 = getelementptr inbounds nuw { i64, ptr }, ptr %5, i32 0, i32 0
  %22 = extractvalue { i64, ptr } %20, 0
  store i64 %22, ptr %21, align 8
  %23 = getelementptr inbounds nuw { i64, ptr }, ptr %5, i32 0, i32 1
  %24 = extractvalue { i64, ptr } %20, 1
  store ptr %24, ptr %23, align 8
  call void @llvm.memcpy.p0.p0.i64(ptr align 8 %19, ptr align 8 %5, i64 16, i1 false), !tbaa.struct !18
  call void @llvm.lifetime.end.p0(i64 16, ptr %5) #6
  br label %37

25:                                               ; preds = %2
  %26 = load ptr, ptr %3, align 8, !tbaa !8
  %27 = getelementptr inbounds nuw %struct.jv_parser, ptr %26, i32 0, i32 10
  call void @llvm.lifetime.start.p0(i64 16, ptr %6) #6
  %28 = call { i64, ptr } @jv_invalid()
  %29 = getelementptr inbounds nuw { i64, ptr }, ptr %6, i32 0, i32 0
  %30 = extractvalue { i64, ptr } %28, 0
  store i64 %30, ptr %29, align 8
  %31 = getelementptr inbounds nuw { i64, ptr }, ptr %6, i32 0, i32 1
  %32 = extractvalue { i64, ptr } %28, 1
  store ptr %32, ptr %31, align 8
  call void @llvm.memcpy.p0.p0.i64(ptr align 8 %27, ptr align 8 %6, i64 16, i1 false), !tbaa.struct !18
  call void @llvm.lifetime.end.p0(i64 16, ptr %6) #6
  %33 = load ptr, ptr %3, align 8, !tbaa !8
  %34 = getelementptr inbounds nuw %struct.jv_parser, ptr %33, i32 0, i32 6
  %35 = load i32, ptr %34, align 4, !tbaa !11
  %36 = and i32 %35, -5
  store i32 %36, ptr %34, align 4, !tbaa !11
  br label %37

37:                                               ; preds = %25, %17
  %38 = load ptr, ptr %3, align 8, !tbaa !8
  %39 = getelementptr inbounds nuw %struct.jv_parser, ptr %38, i32 0, i32 7
  store ptr null, ptr %39, align 8, !tbaa !21
  %40 = load ptr, ptr %3, align 8, !tbaa !8
  %41 = getelementptr inbounds nuw %struct.jv_parser, ptr %40, i32 0, i32 8
  store i32 0, ptr %41, align 8, !tbaa !22
  %42 = load ptr, ptr %3, align 8, !tbaa !8
  %43 = getelementptr inbounds nuw %struct.jv_parser, ptr %42, i32 0, i32 9
  store i32 0, ptr %43, align 4, !tbaa !23
  %44 = load ptr, ptr %3, align 8, !tbaa !8
  %45 = getelementptr inbounds nuw %struct.jv_parser, ptr %44, i32 0, i32 11
  store i32 0, ptr %45, align 8, !tbaa !24
  %46 = load ptr, ptr %3, align 8, !tbaa !8
  %47 = getelementptr inbounds nuw %struct.jv_parser, ptr %46, i32 0, i32 12
  call void @llvm.lifetime.start.p0(i64 16, ptr %7) #6
  %48 = call { i64, ptr } @jv_invalid()
  %49 = getelementptr inbounds nuw { i64, ptr }, ptr %7, i32 0, i32 0
  %50 = extractvalue { i64, ptr } %48, 0
  store i64 %50, ptr %49, align 8
  %51 = getelementptr inbounds nuw { i64, ptr }, ptr %7, i32 0, i32 1
  %52 = extractvalue { i64, ptr } %48, 1
  store ptr %52, ptr %51, align 8
  call void @llvm.memcpy.p0.p0.i64(ptr align 8 %47, ptr align 8 %7, i64 16, i1 false), !tbaa.struct !18
  call void @llvm.lifetime.end.p0(i64 16, ptr %7) #6
  %53 = load ptr, ptr %3, align 8, !tbaa !8
  %54 = getelementptr inbounds nuw %struct.jv_parser, ptr %53, i32 0, i32 13
  call void @llvm.lifetime.start.p0(i64 16, ptr %8) #6
  %55 = call { i64, ptr } @jv_invalid()
  %56 = getelementptr inbounds nuw { i64, ptr }, ptr %8, i32 0, i32 0
  %57 = extractvalue { i64, ptr } %55, 0
  store i64 %57, ptr %56, align 8
  %58 = getelementptr inbounds nuw { i64, ptr }, ptr %8, i32 0, i32 1
  %59 = extractvalue { i64, ptr } %55, 1
  store ptr %59, ptr %58, align 8
  call void @llvm.memcpy.p0.p0.i64(ptr align 8 %54, ptr align 8 %8, i64 16, i1 false), !tbaa.struct !18
  call void @llvm.lifetime.end.p0(i64 16, ptr %8) #6
  %60 = load ptr, ptr %3, align 8, !tbaa !8
  %61 = getelementptr inbounds nuw %struct.jv_parser, ptr %60, i32 0, i32 14
  store ptr null, ptr %61, align 8, !tbaa !25
  %62 = load ptr, ptr %3, align 8, !tbaa !8
  %63 = getelementptr inbounds nuw %struct.jv_parser, ptr %62, i32 0, i32 15
  store i32 0, ptr %63, align 8, !tbaa !26
  %64 = load ptr, ptr %3, align 8, !tbaa !8
  %65 = getelementptr inbounds nuw %struct.jv_parser, ptr %64, i32 0, i32 16
  store i32 0, ptr %65, align 4, !tbaa !27
  %66 = load ptr, ptr %3, align 8, !tbaa !8
  %67 = getelementptr inbounds nuw %struct.jv_parser, ptr %66, i32 0, i32 6
  %68 = load i32, ptr %67, align 4, !tbaa !11
  %69 = and i32 %68, 1
  %70 = icmp ne i32 %69, 0
  br i1 %70, label %71, label %74

71:                                               ; preds = %37
  %72 = load ptr, ptr %3, align 8, !tbaa !8
  %73 = getelementptr inbounds nuw %struct.jv_parser, ptr %72, i32 0, i32 20
  store i32 3, ptr %73, align 8, !tbaa !28
  br label %77

74:                                               ; preds = %37
  %75 = load ptr, ptr %3, align 8, !tbaa !8
  %76 = getelementptr inbounds nuw %struct.jv_parser, ptr %75, i32 0, i32 20
  store i32 0, ptr %76, align 8, !tbaa !28
  br label %77

77:                                               ; preds = %74, %71
  %78 = load ptr, ptr %3, align 8, !tbaa !8
  %79 = getelementptr inbounds nuw %struct.jv_parser, ptr %78, i32 0, i32 4
  store i32 0, ptr %79, align 4, !tbaa !29
  %80 = load ptr, ptr %3, align 8, !tbaa !8
  %81 = getelementptr inbounds nuw %struct.jv_parser, ptr %80, i32 0, i32 0
  store ptr null, ptr %81, align 8, !tbaa !30
  %82 = load ptr, ptr %3, align 8, !tbaa !8
  %83 = getelementptr inbounds nuw %struct.jv_parser, ptr %82, i32 0, i32 3
  store i32 0, ptr %83, align 8, !tbaa !31
  %84 = load ptr, ptr %3, align 8, !tbaa !8
  %85 = getelementptr inbounds nuw %struct.jv_parser, ptr %84, i32 0, i32 2
  store i32 0, ptr %85, align 4, !tbaa !32
  %86 = load ptr, ptr %3, align 8, !tbaa !8
  %87 = getelementptr inbounds nuw %struct.jv_parser, ptr %86, i32 0, i32 1
  store i32 0, ptr %87, align 8, !tbaa !33
  %88 = load ptr, ptr %3, align 8, !tbaa !8
  %89 = getelementptr inbounds nuw %struct.jv_parser, ptr %88, i32 0, i32 5
  store i32 0, ptr %89, align 8, !tbaa !34
  %90 = load ptr, ptr %3, align 8, !tbaa !8
  %91 = getelementptr inbounds nuw %struct.jv_parser, ptr %90, i32 0, i32 21
  %92 = load i8, ptr %91, align 4
  %93 = and i8 %92, -2
  %94 = or i8 %93, 0
  store i8 %94, ptr %91, align 4
  %95 = load ptr, ptr %3, align 8, !tbaa !8
  %96 = getelementptr inbounds nuw %struct.jv_parser, ptr %95, i32 0, i32 17
  store i32 1, ptr %96, align 8, !tbaa !35
  %97 = load ptr, ptr %3, align 8, !tbaa !8
  %98 = getelementptr inbounds nuw %struct.jv_parser, ptr %97, i32 0, i32 18
  store i32 0, ptr %98, align 4, !tbaa !36
  %99 = load ptr, ptr %3, align 8, !tbaa !8
  %100 = getelementptr inbounds nuw %struct.jv_parser, ptr %99, i32 0, i32 19
  call void @jvp_dtoa_context_init(ptr noundef %100)
  ret void
}