; Function Attrs: nounwind uwtable
define internal fastcc void @parser_init(ptr noundef initializes((0, 68), (72, 128), (200, 204)) %0, i32 noundef %1) unnamed_addr #0 {
  %3 = getelementptr inbounds nuw i8, ptr %0, i64 28
  store i32 %1, ptr %3, align 4, !tbaa !4
  %4 = and i32 %1, 2
  %.not = icmp eq i32 %4, 0
  br i1 %.not, label %7, label %5

5:                                                ; preds = %2
  %6 = tail call { i64, ptr } @jv_array() #9
  br label %11

7:                                                ; preds = %2
  %8 = tail call { i64, ptr } @jv_invalid() #9
  %9 = load i32, ptr %3, align 4, !tbaa !4
  %10 = and i32 %9, -5
  store i32 %10, ptr %3, align 4, !tbaa !4
  br label %11

11:                                               ; preds = %7, %5
  %.pn = phi { i64, ptr } [ %8, %7 ], [ %6, %5 ]
  %.sink = extractvalue { i64, ptr } %.pn, 1
  %.sink34 = extractvalue { i64, ptr } %.pn, 0
  %12 = getelementptr inbounds nuw i8, ptr %0, i64 48
  store i64 %.sink34, ptr %12, align 8
  %13 = getelementptr inbounds nuw i8, ptr %0, i64 56
  store ptr %.sink, ptr %13, align 8, !tbaa !15
  %14 = getelementptr inbounds nuw i8, ptr %0, i64 32
  %15 = getelementptr inbounds nuw i8, ptr %0, i64 64
  store i32 0, ptr %15, align 8, !tbaa !16
  %16 = getelementptr inbounds nuw i8, ptr %0, i64 72
  tail call void @llvm.memset.p0.i64(ptr noundef nonnull align 8 dereferenceable(16) %14, i8 0, i64 16, i1 false)
  %17 = tail call { i64, ptr } @jv_invalid() #9
  %18 = extractvalue { i64, ptr } %17, 0
  %19 = extractvalue { i64, ptr } %17, 1
  store i64 %18, ptr %16, align 8
  %.sroa.42.0..sroa_idx = getelementptr inbounds nuw i8, ptr %0, i64 80
  store ptr %19, ptr %.sroa.42.0..sroa_idx, align 8, !tbaa !15
  %20 = getelementptr inbounds nuw i8, ptr %0, i64 88
  %21 = tail call { i64, ptr } @jv_invalid() #9
  %22 = extractvalue { i64, ptr } %21, 0
  %23 = extractvalue { i64, ptr } %21, 1
  store i64 %22, ptr %20, align 8
  %.sroa.4.0..sroa_idx = getelementptr inbounds nuw i8, ptr %0, i64 96
  store ptr %23, ptr %.sroa.4.0..sroa_idx, align 8, !tbaa !15
  %24 = getelementptr inbounds nuw i8, ptr %0, i64 104
  tail call void @llvm.memset.p0.i64(ptr noundef nonnull align 8 dereferenceable(16) %24, i8 0, i64 16, i1 false)
  %25 = load i32, ptr %3, align 4, !tbaa !4
  %26 = and i32 %25, 1
  %.not33 = icmp eq i32 %26, 0
  %spec.select = select i1 %.not33, i32 0, i32 3
  %27 = getelementptr inbounds nuw i8, ptr %0, i64 200
  store i32 %spec.select, ptr %27, align 8, !tbaa !17
  %28 = getelementptr inbounds nuw i8, ptr %0, i64 204
  tail call void @llvm.memset.p0.i64(ptr noundef nonnull align 8 dereferenceable(28) %0, i8 0, i64 28, i1 false)
  %29 = load i8, ptr %28, align 4
  %30 = and i8 %29, -2
  store i8 %30, ptr %28, align 4
  %31 = getelementptr inbounds nuw i8, ptr %0, i64 120
  store i32 1, ptr %31, align 8, !tbaa !18
  %32 = getelementptr inbounds nuw i8, ptr %0, i64 124
  store i32 0, ptr %32, align 4, !tbaa !19
  %33 = getelementptr inbounds nuw i8, ptr %0, i64 128
  tail call void @jvp_dtoa_context_init(ptr noundef nonnull %33) #9
  ret void
}